Certificate:
    Data:
        Version: 3 (0x2)
        Serial Number:
            71:2f:b0:d8:a9:2d:3a:10:5c:82:6e:d5:7d:c1:2d:df
        Signature Algorithm: sha256WithRSAEncryption
        Issuer: CN=Easy-RSA CA
        Validity
            Not Before: Jun 26 08:02:12 2024 GMT
            Not After : Sep 29 08:02:12 2026 GMT
        Subject: CN=Shark2
        Subject Public Key Info:
            Public Key Algorithm: rsaEncryption
                Public-Key: (2048 bit)
                Modulus:
                    00:c1:b7:64:70:55:39:ec:99:97:d6:a2:fb:4a:fa:
                    48:dd:76:2c:3a:00:bf:de:d1:5b:a9:1d:78:c4:06:
                    0e:f4:41:20:49:c8:6f:b8:71:f1:36:b0:2f:2b:e6:
                    ed:51:d5:95:07:bd:48:0d:d4:7c:b1:20:03:6c:9e:
                    3b:5e:7b:57:6a:53:01:03:5e:53:7c:8b:5f:97:e9:
                    44:d1:51:59:91:03:a0:92:99:11:7a:e1:9d:a7:dc:
                    3f:f9:d4:8a:95:0b:7e:21:6b:56:56:20:ce:9c:7f:
                    72:8c:11:af:f7:09:f8:02:5e:ee:4c:66:ff:4f:27:
                    c3:84:1e:a6:96:ba:e6:c3:bd:a8:f5:48:84:43:f7:
                    45:5a:8e:44:1a:85:ad:66:eb:cf:83:e4:ea:e6:f1:
                    a7:b9:d5:92:11:91:8f:b9:b9:3f:90:a0:12:40:11:
                    27:37:46:b3:11:35:1e:fb:a0:b6:ae:68:1f:97:b0:
                    c0:34:98:c3:13:6b:fb:f1:01:16:0c:4a:b6:5f:07:
                    9d:8f:bb:63:42:1b:26:6e:29:59:a6:fe:27:4f:bb:
                    3e:0d:c8:56:48:ad:1f:e3:c2:1e:09:16:89:0c:89:
                    83:21:21:ba:74:f9:8f:e1:5e:a2:9d:a5:d3:6d:d3:
                    cf:bd:bf:bc:78:47:73:8b:ad:21:ca:68:b7:99:32:
                    cb:17
                Exponent: 65537 (0x10001)
        X509v3 extensions:
            X509v3 Basic Constraints: 
                CA:FALSE
            X509v3 Subject Key Identifier: 
                11:A9:30:BC:A2:EB:DF:4F:FF:74:A5:6D:7C:C4:C4:C7:FC:79:B4:E5
            X509v3 Authority Key Identifier: 
                keyid:74:BD:FE:9B:FB:19:36:8F:00:F3:A6:18:EE:3A:24:EF:B1:0C:4F:79
                DirName:/CN=Easy-RSA CA
                serial:58:81:08:25:85:E3:FB:C4:90:7A:4A:93:AA:44:D5:E2:69:4F:2F:D0
            X509v3 Extended Key Usage: 
                TLS Web Client Authentication
            X509v3 Key Usage: 
                Digital Signature
    Signature Algorithm: sha256WithRSAEncryption
    Signature Value:
        13:ef:b9:39:8e:b8:2c:b5:49:71:4a:b4:7e:67:f2:4f:eb:d6:
        ea:58:1c:97:70:7b:e7:88:f9:ba:6f:6d:8c:43:cd:7d:f6:db:
        9a:c8:52:71:95:a9:0d:48:4a:51:a7:a6:b3:74:49:b3:7e:9c:
        0f:08:d3:6d:8d:bd:d9:b6:d1:bf:13:0c:bd:25:ec:dd:38:b4:
        d5:cf:13:f4:00:57:0f:46:e6:54:27:0c:5b:c7:72:bc:b0:a0:
        c6:ec:28:f9:81:86:68:fc:79:47:9b:6e:c2:ee:17:b5:36:6d:
        d6:f8:bd:64:f1:de:4c:98:1a:63:14:07:f1:65:fa:40:b1:92:
        6a:6e:40:ce:8d:89:71:87:30:28:1d:88:72:47:a8:66:38:50:
        30:00:68:bb:7a:e1:cc:fa:90:20:c7:eb:13:03:f4:22:d3:3f:
        be:00:d9:3d:b4:4a:a2:dd:64:36:29:8c:37:f8:46:19:35:75:
        e3:7b:69:d7:02:a5:6a:8e:9f:78:d1:fd:a3:8c:06:57:b1:12:
        f7:76:f4:11:5e:c5:b5:dd:e3:59:46:96:96:60:41:2d:b0:d7:
        95:05:1f:9c:0f:4a:b9:5e:14:4d:c0:80:63:d6:f1:b6:0c:a9:
        6e:bb:5c:97:7c:7f:f6:2d:b2:a4:f6:8c:61:2c:4d:05:de:3a:
        90:a1:9e:1e
-----BEGIN CERTIFICATE-----
MIIDVDCCAjygAwIBAgIQcS+w2KktOhBcgm7VfcEt3zANBgkqhkiG9w0BAQsFADAW
MRQwEgYDVQQDDAtFYXN5LVJTQSBDQTAeFw0yNDA2MjYwODAyMTJaFw0yNjA5Mjkw
ODAyMTJaMBExDzANBgNVBAMMBlNoYXJrMjCCASIwDQYJKoZIhvcNAQEBBQADggEP
ADCCAQoCggEBAMG3ZHBVOeyZl9ai+0r6SN12LDoAv97RW6kdeMQGDvRBIEnIb7hx
8TawLyvm7VHVlQe9SA3UfLEgA2yeO157V2pTAQNeU3yLX5fpRNFRWZEDoJKZEXrh
nafcP/nUipULfiFrVlYgzpx/cowRr/cJ+AJe7kxm/08nw4Qeppa65sO9qPVIhEP3
RVqORBqFrWbrz4Pk6ubxp7nVkhGRj7m5P5CgEkARJzdGsxE1Hvugtq5oH5ewwDSY
wxNr+/EBFgxKtl8HnY+7Y0IbJm4pWab+J0+7Pg3IVkitH+PCHgkWiQyJgyEhunT5
j+Feop2l023Tz72/vHhHc4utIcpot5kyyxcCAwEAAaOBojCBnzAJBgNVHRMEAjAA
MB0GA1UdDgQWBBQRqTC8ouvfT/90pW18xMTH/Hm05TBRBgNVHSMESjBIgBR0vf6b
+xk2jwDzphjuOiTvsQxPeaEapBgwFjEUMBIGA1UEAwwLRWFzeS1SU0EgQ0GCFFiB
CCWF4/vEkHpKk6pE1eJpTy/QMBMGA1UdJQQMMAoGCCsGAQUFBwMCMAsGA1UdDwQE
AwIHgDANBgkqhkiG9w0BAQsFAAOCAQEAE++5OY64LLVJcUq0fmfyT+vW6lgcl3B7
54j5um9tjEPNffbbmshScZWpDUhKUaems3RJs36cDwjTbY292bbRvxMMvSXs3Ti0
1c8T9ABXD0bmVCcMW8dyvLCgxuwo+YGGaPx5R5tuwu4XtTZt1vi9ZPHeTJgaYxQH
8WX6QLGSam5Azo2JcYcwKB2IckeoZjhQMABou3rhzPqQIMfrEwP0ItM/vgDZPbRK
ot1kNimMN/hGGTV143tp1wKlao6feNH9o4wGV7ES93b0EV7Ftd3jWUaWlmBBLbDX
lQUfnA9KuV4UTcCAY9bxtgypbrtcl3x/9i2ypPaMYSxNBd46kKGeHg==
-----END CERTIFICATE-----
