Certificate:
    Data:
        Version: 3 (0x2)
        Serial Number:
            aa:1b:04:75:d1:b0:f3:64:92:58:a3:ff:2d:0a:85:c7
        Signature Algorithm: sha256WithRSAEncryption
        Issuer: CN=Easy-RSA CA
        Validity
            Not Before: Jun 26 07:57:28 2024 GMT
            Not After : Sep 29 07:57:28 2026 GMT
        Subject: CN=SpectreC4
        Subject Public Key Info:
            Public Key Algorithm: rsaEncryption
                Public-Key: (2048 bit)
                Modulus:
                    00:db:f3:7f:f3:6e:f2:da:ac:69:a2:e9:5b:c5:05:
                    fd:80:8e:c9:a5:56:d7:e0:cc:d5:6e:81:33:f3:60:
                    16:c3:3e:84:39:7b:ba:62:68:1f:bf:cf:44:3f:f7:
                    1c:9a:25:d2:2b:71:e1:10:a3:d1:a8:cd:48:89:71:
                    ca:4f:80:06:f3:d6:62:52:96:dc:bd:45:30:a6:9f:
                    f0:5c:e4:37:78:30:be:83:42:02:fa:b6:6e:2d:bf:
                    45:ba:58:4b:49:60:4a:7a:4e:c3:fa:62:c6:29:87:
                    21:20:e3:7c:98:87:e3:17:66:8d:66:5f:a4:62:b6:
                    e9:e1:6d:f7:71:f2:7b:d9:ff:61:c1:8c:4c:13:f7:
                    d3:c7:5d:b0:8e:9f:e6:4b:c3:94:cb:47:75:79:43:
                    07:a8:6b:dd:d4:2b:d7:66:4f:1c:72:ae:56:27:b1:
                    79:62:fd:87:e3:d4:3a:01:84:39:1a:83:e1:b7:ef:
                    c6:93:1d:51:5f:ce:5e:80:95:90:2c:c4:13:f3:c0:
                    10:76:7f:6d:5a:11:f7:7b:61:88:6d:e6:a4:86:97:
                    24:6d:e3:1b:63:ad:cc:20:d3:03:57:47:1b:51:91:
                    71:1e:ce:09:99:c1:75:e8:fd:b7:19:84:de:c6:d4:
                    22:7f:8e:8f:5f:13:61:38:1d:6b:a2:5e:56:ea:fa:
                    49:53
                Exponent: 65537 (0x10001)
        X509v3 extensions:
            X509v3 Basic Constraints: 
                CA:FALSE
            X509v3 Subject Key Identifier: 
                53:0C:91:40:E7:8E:7C:8A:14:80:A1:F7:63:DB:41:54:73:4F:50:F8
            X509v3 Authority Key Identifier: 
                keyid:74:BD:FE:9B:FB:19:36:8F:00:F3:A6:18:EE:3A:24:EF:B1:0C:4F:79
                DirName:/CN=Easy-RSA CA
                serial:58:81:08:25:85:E3:FB:C4:90:7A:4A:93:AA:44:D5:E2:69:4F:2F:D0
            X509v3 Extended Key Usage: 
                TLS Web Server Authentication
            X509v3 Key Usage: 
                Digital Signature, Key Encipherment
            X509v3 Subject Alternative Name: 
                DNS:SpectreC4
    Signature Algorithm: sha256WithRSAEncryption
    Signature Value:
        1c:36:3f:37:3c:88:16:68:a6:29:b3:7f:d2:80:17:73:93:23:
        88:4e:da:bf:3e:dd:ee:a9:86:a8:e8:42:b6:74:1b:e6:69:64:
        fb:2d:b2:6c:fd:89:96:44:ec:b5:fe:5e:d6:71:53:f4:37:4d:
        12:f9:78:2c:43:b2:73:e6:63:48:76:66:7d:95:14:fc:56:1b:
        35:c9:71:1c:9e:67:fe:78:f7:a1:d5:51:1b:66:16:0c:41:e9:
        15:76:b7:5c:3a:91:7b:04:a9:9f:62:39:0f:7e:21:60:f2:e1:
        b2:58:22:15:5a:3b:13:97:74:82:ab:d4:27:38:95:6b:a5:27:
        ec:fc:ca:0d:59:59:c5:81:0c:e3:51:9e:3a:16:48:19:4c:43:
        a6:72:9e:b3:bf:48:fe:ad:8a:50:5e:9b:d1:ef:c2:a5:72:81:
        a1:ea:17:7f:20:2d:12:f3:ca:25:98:89:d7:87:09:fd:57:e4:
        05:28:c1:c5:b7:9a:a4:1f:b1:c7:df:36:67:8e:3f:b7:6d:7f:
        03:94:8f:06:58:9d:e3:26:b0:2f:b0:2e:7a:4a:5e:4d:72:e9:
        1b:c8:37:d3:eb:54:fb:44:0d:68:1a:80:4e:10:18:3c:57:15:
        97:96:f8:87:fb:57:9c:84:94:43:0b:ce:67:7e:ed:92:42:34:
        60:3d:ef:45
-----BEGIN CERTIFICATE-----
MIIDbjCCAlagAwIBAgIRAKobBHXRsPNkklij/y0KhccwDQYJKoZIhvcNAQELBQAw
FjEUMBIGA1UEAwwLRWFzeS1SU0EgQ0EwHhcNMjQwNjI2MDc1NzI4WhcNMjYwOTI5
MDc1NzI4WjAUMRIwEAYDVQQDDAlTcGVjdHJlQzQwggEiMA0GCSqGSIb3DQEBAQUA
A4IBDwAwggEKAoIBAQDb83/zbvLarGmi6VvFBf2AjsmlVtfgzNVugTPzYBbDPoQ5
e7piaB+/z0Q/9xyaJdIrceEQo9GozUiJccpPgAbz1mJSlty9RTCmn/Bc5Dd4ML6D
QgL6tm4tv0W6WEtJYEp6TsP6YsYphyEg43yYh+MXZo1mX6Ritunhbfdx8nvZ/2HB
jEwT99PHXbCOn+ZLw5TLR3V5Qweoa93UK9dmTxxyrlYnsXli/Yfj1DoBhDkag+G3
78aTHVFfzl6AlZAsxBPzwBB2f21aEfd7YYht5qSGlyRt4xtjrcwg0wNXRxtRkXEe
zgmZwXXo/bcZhN7G1CJ/jo9fE2E4HWuiXlbq+klTAgMBAAGjgbgwgbUwCQYDVR0T
BAIwADAdBgNVHQ4EFgQUUwyRQOeOfIoUgKH3Y9tBVHNPUPgwUQYDVR0jBEowSIAU
dL3+m/sZNo8A86YY7jok77EMT3mhGqQYMBYxFDASBgNVBAMMC0Vhc3ktUlNBIENB
ghRYgQglheP7xJB6SpOqRNXiaU8v0DATBgNVHSUEDDAKBggrBgEFBQcDATALBgNV
HQ8EBAMCBaAwFAYDVR0RBA0wC4IJU3BlY3RyZUM0MA0GCSqGSIb3DQEBCwUAA4IB
AQAcNj83PIgWaKYps3/SgBdzkyOITtq/Pt3uqYao6EK2dBvmaWT7LbJs/YmWROy1
/l7WcVP0N00S+XgsQ7Jz5mNIdmZ9lRT8Vhs1yXEcnmf+ePeh1VEbZhYMQekVdrdc
OpF7BKmfYjkPfiFg8uGyWCIVWjsTl3SCq9QnOJVrpSfs/MoNWVnFgQzjUZ46FkgZ
TEOmcp6zv0j+rYpQXpvR78KlcoGh6hd/IC0S88olmInXhwn9V+QFKMHFt5qkH7HH
3zZnjj+3bX8DlI8GWJ3jJrAvsC56Sl5NcukbyDfT61T7RA1oGoBOEBg8VxWXlviH
+1echJRDC85nfu2SQjRgPe9F
-----END CERTIFICATE-----
